target datalayout = "e-m:e-p270:32:32-p271:32:32-p272:64:64-i64:64-i128:128-f80:128-n8:16:32:64-S128"
target triple = "x86_64-pc-linux-gnu"

%"class.gmx::ArrayRef" = type { %"struct.gmx::ArrayRefIter", %"struct.gmx::ArrayRefIter" }
%"struct.gmx::ArrayRefIter" = type { ptr }
%"class.std::filesystem::__cxx11::path" = type { %"class.std::__cxx11::basic_string", %"struct.std::filesystem::__cxx11::path::_List" }
%"class.std::__cxx11::basic_string" = type { %"struct.std::__cxx11::basic_string<char>::_Alloc_hider", i64, %union.anon }
%"struct.std::__cxx11::basic_string<char>::_Alloc_hider" = type { ptr }
%union.anon = type { i64, [8 x i8] }
%"struct.std::filesystem::__cxx11::path::_List" = type { %"class.std::unique_ptr" }
%"class.std::unique_ptr" = type { %"struct.std::__uniq_ptr_data" }
%"struct.std::__uniq_ptr_data" = type { %"class.std::__uniq_ptr_impl" }
%"class.std::__uniq_ptr_impl" = type { %"class.std::tuple" }
%"class.std::tuple" = type { %"struct.std::_Tuple_impl" }
%"struct.std::_Tuple_impl" = type { %"struct.std::_Head_base.1" }
%"struct.std::_Head_base.1" = type { ptr }
%struct.IndexGroup = type { %"class.std::__cxx11::basic_string", %"class.std::vector" }
%"class.std::vector" = type { %"struct.std::_Vector_base" }
%"struct.std::_Vector_base" = type { %"struct.std::_Vector_base<int, std::allocator<int>>::_Vector_impl" }
%"struct.std::_Vector_base<int, std::allocator<int>>::_Vector_impl" = type { %"struct.std::_Vector_base<int, std::allocator<int>>::_Vector_impl_data" }
%"struct.std::_Vector_base<int, std::allocator<int>>::_Vector_impl_data" = type { ptr, ptr, ptr }
%"class.std::vector.5" = type { %"struct.std::_Vector_base.6" }
%"struct.std::_Vector_base.6" = type { %"struct.std::_Vector_base<IndexGroup, std::allocator<IndexGroup>>::_Vector_impl" }
%"struct.std::_Vector_base<IndexGroup, std::allocator<IndexGroup>>::_Vector_impl" = type { %"struct.std::_Vector_base<IndexGroup, std::allocator<IndexGroup>>::_Vector_impl_data" }
%"struct.std::_Vector_base<IndexGroup, std::allocator<IndexGroup>>::_Vector_impl_data" = type { ptr, ptr, ptr }

@.str.63 = private unnamed_addr constant [124 x i8] c"generated/home/dtcxzyw/WorkSpace/Projects/compilers/llvm-opt-benchmark/bench/gromacs/gromacs/src/gromacs/topology/index.cpp\00", align 1
@.str.87 = private unnamed_addr constant [24 x i8] c"No index file specified\00", align 1

; Function Attrs: mustprogress nounwind uwtable
define linkonce_odr noundef ptr @_ZNKSt6vectorI10IndexGroupSaIS0_EE11_M_data_ptrIS0_EEPT_S5_(ptr noundef nonnull align 8 dereferenceable(24) %0, ptr noundef %1) #2 comdat align 2 {
  %3 = alloca ptr, align 8
  %4 = alloca ptr, align 8
  store ptr %0, ptr %3, align 8
  store ptr %1, ptr %4, align 8
  %5 = load ptr, ptr %4, align 8
  ret ptr %5
}

; Function Attrs: mustprogress nounwind uwtable
define linkonce_odr noundef i64 @_ZNKSt6vectorI10IndexGroupSaIS0_EE4sizeEv(ptr noundef nonnull align 8 dereferenceable(24) %0) #2 comdat align 2 {
  %2 = alloca ptr, align 8
  store ptr %0, ptr %2, align 8
  %3 = load ptr, ptr %2, align 8
  %4 = getelementptr inbounds %"struct.std::_Vector_base.6", ptr %3, i32 0, i32 0
  %5 = getelementptr inbounds %"struct.std::_Vector_base<IndexGroup, std::allocator<IndexGroup>>::_Vector_impl_data", ptr %4, i32 0, i32 1
  %6 = load ptr, ptr %5, align 8
  %7 = getelementptr inbounds %"struct.std::_Vector_base.6", ptr %3, i32 0, i32 0
  %8 = getelementptr inbounds %"struct.std::_Vector_base<IndexGroup, std::allocator<IndexGroup>>::_Vector_impl_data", ptr %7, i32 0, i32 0
  %9 = load ptr, ptr %8, align 8
  %10 = ptrtoint ptr %6 to i64
  %11 = ptrtoint ptr %9 to i64
  %12 = sub i64 %10, %11
  %13 = sdiv exact i64 %12, 56
  ret i64 %13
}

; Function Attrs: mustprogress nounwind uwtable
define linkonce_odr void @_ZN3gmx12ArrayRefIterIK10IndexGroupEC2EPS2_(ptr noundef nonnull align 8 dereferenceable(8) %0, ptr noundef %1) unnamed_addr #2 comdat align 2 {
  %3 = alloca ptr, align 8
  %4 = alloca ptr, align 8
  store ptr %0, ptr %3, align 8
  store ptr %1, ptr %4, align 8
  %5 = load ptr, ptr %3, align 8
  %6 = getelementptr inbounds %"struct.gmx::ArrayRefIter", ptr %5, i32 0, i32 0
  %7 = load ptr, ptr %4, align 8
  store ptr %7, ptr %6, align 8
  ret void
}

; Function Attrs: mustprogress nounwind uwtable
define linkonce_odr noundef ptr @_ZNKSt6vectorI10IndexGroupSaIS0_EE4dataEv(ptr noundef nonnull align 8 dereferenceable(24) %0) #2 comdat align 2 {
  %2 = alloca ptr, align 8
  store ptr %0, ptr %2, align 8
  %3 = load ptr, ptr %2, align 8
  %4 = getelementptr inbounds %"struct.std::_Vector_base.6", ptr %3, i32 0, i32 0
  %5 = getelementptr inbounds %"struct.std::_Vector_base<IndexGroup, std::allocator<IndexGroup>>::_Vector_impl_data", ptr %4, i32 0, i32 0
  %6 = load ptr, ptr %5, align 8
  %7 = call noundef ptr @_ZNKSt6vectorI10IndexGroupSaIS0_EE11_M_data_ptrIS0_EEPT_S5_(ptr noundef nonnull align 8 dereferenceable(24) %3, ptr noundef %6) #12
  ret ptr %7
}

; Function Attrs: mustprogress nounwind uwtable
define linkonce_odr void @_ZN3gmx8ArrayRefIK10IndexGroupEC2IRKSt6vectorIS1_SaIS1_EEvEEOT_(ptr noundef nonnull align 8 dereferenceable(16) %0, ptr noundef nonnull align 8 dereferenceable(24) %1) unnamed_addr #2 comdat align 2 {
  %3 = alloca ptr, align 8
  %4 = alloca ptr, align 8
  store ptr %0, ptr %3, align 8
  store ptr %1, ptr %4, align 8
  %5 = load ptr, ptr %3, align 8
  %6 = getelementptr inbounds %"class.gmx::ArrayRef", ptr %5, i32 0, i32 0
  %7 = load ptr, ptr %4, align 8
  %8 = call noundef ptr @_ZNKSt6vectorI10IndexGroupSaIS0_EE4dataEv(ptr noundef nonnull align 8 dereferenceable(24) %7) #12
  call void @_ZN3gmx12ArrayRefIterIK10IndexGroupEC2EPS2_(ptr noundef nonnull align 8 dereferenceable(8) %6, ptr noundef %8) #12
  %9 = getelementptr inbounds %"class.gmx::ArrayRef", ptr %5, i32 0, i32 1
  %10 = load ptr, ptr %4, align 8
  %11 = call noundef ptr @_ZNKSt6vectorI10IndexGroupSaIS0_EE4dataEv(ptr noundef nonnull align 8 dereferenceable(24) %10) #12
  %12 = load ptr, ptr %4, align 8
  %13 = call noundef i64 @_ZNKSt6vectorI10IndexGroupSaIS0_EE4sizeEv(ptr noundef nonnull align 8 dereferenceable(24) %12) #12
  %14 = getelementptr inbounds %struct.IndexGroup, ptr %11, i64 %13
  call void @_ZN3gmx12ArrayRefIterIK10IndexGroupEC2EPS2_(ptr noundef nonnull align 8 dereferenceable(8) %9, ptr noundef %14) #12
  ret void
}

; Function Attrs: mustprogress uwtable
define void @_Z8rd_indexPKciPiPS1_PPc(ptr noundef %0, i32 noundef %1, ptr noundef %2, ptr noundef %3, ptr noundef %4) #0 personality ptr @__gxx_personality_v0 {
  %6 = alloca ptr, align 8
  %7 = alloca i32, align 4
  %8 = alloca ptr, align 8
  %9 = alloca ptr, align 8
  %10 = alloca ptr, align 8
  %11 = alloca %"class.std::filesystem::__cxx11::path", align 8
  %12 = alloca ptr, align 8
  %13 = alloca i32, align 4
  %14 = alloca %"class.std::vector.5", align 8
  %15 = alloca %"class.gmx::ArrayRef", align 8
  store ptr %0, ptr %6, align 8
  store i32 %1, ptr %7, align 4
  store ptr %2, ptr %8, align 8
  store ptr %3, ptr %9, align 8
  store ptr %4, ptr %10, align 8
  %16 = load ptr, ptr %6, align 8
  %17 = icmp ne ptr %16, null
  br i1 %17, label %24, label %18

18:                                               ; preds = %5
  call void @_ZNSt10filesystem7__cxx114pathC2IA124_cS1_EERKT_NS1_6formatE(ptr noundef nonnull align 8 dereferenceable(40) %11, ptr noundef nonnull align 1 dereferenceable(124) @.str.63, i8 noundef zeroext 2)
  invoke void (i32, ptr, i32, ptr, ...) @_Z9gmx_fataliRKNSt10filesystem7__cxx114pathEiPKcz(i32 noundef 0, ptr noundef nonnull align 8 dereferenceable(40) %11, i32 noundef 930, ptr noundef @.str.87) #14
          to label %19 unwind label %20

19:                                               ; preds = %18
  unreachable

20:                                               ; preds = %18
  %21 = landingpad { ptr, i32 }
          cleanup
  %22 = extractvalue { ptr, i32 } %21, 0
  store ptr %22, ptr %12, align 8
  %23 = extractvalue { ptr, i32 } %21, 1
  store i32 %23, ptr %13, align 4
  call void @_ZNSt10filesystem7__cxx114pathD2Ev(ptr noundef nonnull align 8 dereferenceable(40) %11) #12
  br label %40

24:                                               ; preds = %5
  %25 = load ptr, ptr %6, align 8
  call void @_Z10init_indexPKc(ptr dead_on_unwind writable sret(%"class.std::vector.5") align 8 %14, ptr noundef %25)
  invoke void @_ZN3gmx8ArrayRefIK10IndexGroupEC2IRKSt6vectorIS1_SaIS1_EEvEEOT_(ptr noundef nonnull align 8 dereferenceable(16) %15, ptr noundef nonnull align 8 dereferenceable(24) %14)
          to label %26 unwind label %36

26:                                               ; preds = %24
  %27 = load ptr, ptr %10, align 8
  %28 = load i32, ptr %7, align 4
  %29 = load ptr, ptr %8, align 8
  %30 = load ptr, ptr %9, align 8
  %31 = getelementptr inbounds { ptr, ptr }, ptr %15, i32 0, i32 0
  %32 = load ptr, ptr %31, align 8
  %33 = getelementptr inbounds { ptr, ptr }, ptr %15, i32 0, i32 1
  %34 = load ptr, ptr %33, align 8
  invoke void @_ZL9rd_groupsN3gmx8ArrayRefIK10IndexGroupEEPPciPiPS6_(ptr %32, ptr %34, ptr noundef %27, i32 noundef %28, ptr noundef %29, ptr noundef %30)
          to label %35 unwind label %36

35:                                               ; preds = %26
  call void @_ZNSt6vectorI10IndexGroupSaIS0_EED2Ev(ptr noundef nonnull align 8 dereferenceable(24) %14) #12
  ret void

36:                                               ; preds = %26, %24
  %37 = landingpad { ptr, i32 }
          cleanup
  %38 = extractvalue { ptr, i32 } %37, 0
  store ptr %38, ptr %12, align 8
  %39 = extractvalue { ptr, i32 } %37, 1
  store i32 %39, ptr %13, align 4
  call void @_ZNSt6vectorI10IndexGroupSaIS0_EED2Ev(ptr noundef nonnull align 8 dereferenceable(24) %14) #12
  br label %40

40:                                               ; preds = %36, %20
  %41 = load ptr, ptr %12, align 8
  %42 = load i32, ptr %13, align 4
  %43 = insertvalue { ptr, i32 } poison, ptr %41, 0
  %44 = insertvalue { ptr, i32 } %43, i32 %42, 1
  resume { ptr, i32 } %44
}