; Function Attrs: mustprogress uwtable
define void @_Z8rd_indexPKciPiPS1_PPc(ptr noundef %0, i32 noundef %1, ptr nocapture noundef %2, ptr nocapture noundef %3, ptr nocapture noundef writeonly %4) local_unnamed_addr #0 personality ptr @__gxx_personality_v0 {
  %6 = alloca %"class.std::filesystem::__cxx11::path", align 8
  %7 = alloca %"class.std::vector.5", align 8
  %.not = icmp eq ptr %0, null
  br i1 %.not, label %8, label %12

8:                                                ; preds = %5
  call void @_ZNSt10filesystem7__cxx114pathC2IA124_cS1_EERKT_NS1_6formatE(ptr noundef nonnull align 8 dereferenceable(40) %6, ptr noundef nonnull align 1 dereferenceable(124) @.str.63, i8 noundef zeroext 2)
  invoke void (i32, ptr, i32, ptr, ...) @_Z9gmx_fataliRKNSt10filesystem7__cxx114pathEiPKcz(i32 noundef 0, ptr noundef nonnull align 8 dereferenceable(40) %6, i32 noundef 930, ptr noundef nonnull @.str.87) #24
          to label %9 unwind label %10

9:                                                ; preds = %8
  unreachable

10:                                               ; preds = %8
  %11 = landingpad { ptr, i32 }
          cleanup
  call void @_ZNSt10filesystem7__cxx114pathD2Ev(ptr noundef nonnull align 8 dereferenceable(40) %6) #21
  br label %31

12:                                               ; preds = %5
  call void @_Z10init_indexPKc(ptr dead_on_unwind nonnull writable sret(%"class.std::vector.5") align 8 %7, ptr noundef nonnull %0)
  %13 = load ptr, ptr %7, align 8
  %14 = getelementptr inbounds i8, ptr %7, i64 8
  %15 = load ptr, ptr %14, align 8
  %16 = ptrtoint ptr %15 to i64
  %17 = ptrtoint ptr %13 to i64
  %18 = sub i64 %16, %17
  %19 = getelementptr inbounds i8, ptr %13, i64 %18
  invoke fastcc void @_ZL9rd_groupsN3gmx8ArrayRefIK10IndexGroupEEPPciPiPS6_(ptr %13, ptr %19, ptr noundef %4, i32 noundef %1, ptr noundef %2, ptr noundef %3)
          to label %20 unwind label %29

20:                                               ; preds = %12
  %21 = load ptr, ptr %7, align 8
  %22 = load ptr, ptr %14, align 8
  %.not4.i.i.i.i = icmp eq ptr %21, %22
  br i1 %.not4.i.i.i.i, label %_ZSt8_DestroyIP10IndexGroupS0_EvT_S2_RSaIT0_E.exit.i, label %.lr.ph.i.i.i.i

.lr.ph.i.i.i.i:                                   ; preds = %20, %_ZSt8_DestroyI10IndexGroupEvPT_.exit.i.i.i.i
  %.05.i.i.i.i = phi ptr [ %26, %_ZSt8_DestroyI10IndexGroupEvPT_.exit.i.i.i.i ], [ %21, %20 ]
  %23 = getelementptr inbounds i8, ptr %.05.i.i.i.i, i64 32
  %24 = load ptr, ptr %23, align 8
  %.not.i.i.i.i.i.i.i.i.i = icmp eq ptr %24, null
  br i1 %.not.i.i.i.i.i.i.i.i.i, label %_ZSt8_DestroyI10IndexGroupEvPT_.exit.i.i.i.i, label %25

25:                                               ; preds = %.lr.ph.i.i.i.i
  call void @_ZdlPv(ptr noundef nonnull %24) #26
  br label %_ZSt8_DestroyI10IndexGroupEvPT_.exit.i.i.i.i

_ZSt8_DestroyI10IndexGroupEvPT_.exit.i.i.i.i:     ; preds = %25, %.lr.ph.i.i.i.i
  call void @_ZNSt7__cxx1112basic_stringIcSt11char_traitsIcESaIcEED1Ev(ptr noundef nonnull align 8 dereferenceable(32) %.05.i.i.i.i) #21
  %26 = getelementptr inbounds i8, ptr %.05.i.i.i.i, i64 56
  %.not.i.i.i.i = icmp eq ptr %26, %22
  br i1 %.not.i.i.i.i, label %_ZSt8_DestroyIP10IndexGroupS0_EvT_S2_RSaIT0_E.exitthread-pre-split.i, label %.lr.ph.i.i.i.i, !llvm.loop !40

_ZSt8_DestroyIP10IndexGroupS0_EvT_S2_RSaIT0_E.exitthread-pre-split.i: ; preds = %_ZSt8_DestroyI10IndexGroupEvPT_.exit.i.i.i.i
  %.pr.i = load ptr, ptr %7, align 8
  br label %_ZSt8_DestroyIP10IndexGroupS0_EvT_S2_RSaIT0_E.exit.i

_ZSt8_DestroyIP10IndexGroupS0_EvT_S2_RSaIT0_E.exit.i: ; preds = %_ZSt8_DestroyIP10IndexGroupS0_EvT_S2_RSaIT0_E.exitthread-pre-split.i, %20
  %27 = phi ptr [ %.pr.i, %_ZSt8_DestroyIP10IndexGroupS0_EvT_S2_RSaIT0_E.exitthread-pre-split.i ], [ %21, %20 ]
  %.not.i.i.i = icmp eq ptr %27, null
  br i1 %.not.i.i.i, label %_ZNSt6vectorI10IndexGroupSaIS0_EED2Ev.exit, label %28

28:                                               ; preds = %_ZSt8_DestroyIP10IndexGroupS0_EvT_S2_RSaIT0_E.exit.i
  call void @_ZdlPv(ptr noundef nonnull %27) #26
  br label %_ZNSt6vectorI10IndexGroupSaIS0_EED2Ev.exit

_ZNSt6vectorI10IndexGroupSaIS0_EED2Ev.exit:       ; preds = %_ZSt8_DestroyIP10IndexGroupS0_EvT_S2_RSaIT0_E.exit.i, %28
  ret void

29:                                               ; preds = %12
  %30 = landingpad { ptr, i32 }
          cleanup
  call void @_ZNSt6vectorI10IndexGroupSaIS0_EED2Ev(ptr noundef nonnull align 8 dereferenceable(24) %7) #21
  br label %31

31:                                               ; preds = %29, %10
  %.pn = phi { ptr, i32 } [ %30, %29 ], [ %11, %10 ]
  resume { ptr, i32 } %.pn
}